ASxxxx Linker V03.00 + NoICE + sdld,  page 1.
Hexadecimal  [32-Bits]

Area                       Addr        Size        Decimal Bytes (Attributes)
--------------------       ----        ----        ------- ----- ------------
.  .ABS.               00000000    00000000 =           0. bytes (ABS,CON)

        Value  Global            Value  Global            Value  Global    
        -----  ------            -----  ------            -----  ------    
     00000000  .__.ABS.  |    00000000  _rRAMG    |    00000000  l__BASE  
     00000000  l__BSS    |    00000000  l__CABS   |    00000000  l__CODE_0
     00000000  l__DABS   |    00000000  l__EMU_HE |    00000000  l__FONT_H
     00000000  l__HEADER |    00000000  l__HEADER |    00000000  l__HEADER
     00000000  l__HEAP   |    00000000  l__HRAM   |    00000000  l__LIT   
     00000000  s__CABS   |    00000000  s__DABS   |    00000000  s__EMU_HE
     00000000  s__EMU_HE |    00000000  s__FONT_H |    00000000  s__FONT_H
     00000000  s__HEADER |    00000000  s__HEADER |    00000000  s__HEADER
     00000000  s__HEADER |    00000000  s__HEADER |    00000000  s__HEADER
     00000000  s__HEADER |    00000000  s__HEADER |    00000000  s__HEADER
     00000000  s__HEADER |    00000000  s__HEADER |    00000000  s__HEADER
     00000000  s__HEADER |    00000000  s__HEADER |    00000000  s__HEADER
     00000000  s__HEADER |    00000000  s__HEADER |    00000000  s__HEADER
     00000000  s__HEADER |    00000000  s__HEADER |    00000000  s__HEADER
     00000000  s__HEADER |    00000000  s__HEADER |    00000000  s__HRAM  
     00000000  s__HRAM12 |    00000001  ___bank_f |    00000001  ___bank_g
     00000001  ___bank_g |    00000001  ___bank_g |    00000001  ___bank_g
     00000001  ___bank_g |    00000001  ___bank_m |    00000001  ___bank_m
     00000001  ___bank_m |    00000001  ___bank_m |    00000001  ___bank_m
     00000001  ___bank_m |    00000001  ___bank_m |    00000001  ___bank_m
     00000001  ___bank_m |    00000001  ___bank_s |    00000001  ___bank_s
     00000001  ___bank_t |    00000001  ___bank_t |    00000001  ___bank_t
     00000001  b_gblink_ |    00000001  b_mem_tes |    00000001  b_menu_ar
     00000001  b_menu_ba |    00000001  b_superus |    00000001  b_superus
     00000001  b_text_lo |    00000001  b_text_pr |    00000001  b_text_pr
     00000001  l__GSFINA |    00000001  l__HEADER |    00000001  l__HEADER
     00000001  l__HEADER |    00000001  l__HEADER |    00000001  l__HEADER
     00000001  l__HEADER |    00000001  l__HEADER |    00000002  ___bank_B
     00000002  ___bank_B |    00000002  ___bank_C |    00000002  ___bank_C
     00000002  ___bank_a |    00000002  ___bank_b |    00000002  ___bank_b
     00000002  ___bank_b |    00000002  ___bank_b |    00000002  ___bank_c
     00000002  ___bank_c |    00000002  ___bank_c |    00000002  ___bank_c
     00000002  ___bank_n |    00000002  ___bank_n |    00000002  ___bank_p
     00000002  ___bank_s |    00000002  b_ask_use |    00000002  b_blank_d
     00000002  b_button_ |    00000002  b_buttons |    00000002  b_display
     00000002  b_next_ar |    00000002  b_next_bu |    00000002  l__HEADER
     00000002  l__HEADER |    00000002  l__HEADER |    00000003  l__EMU_HE
     00000003  l__FONT_H |    00000003  l__HEADER |    00000003  l__HEADER
     00000003  l__HRAM12 |    00000005  l__HEADER |    00000006  l__HEADER
     00000007  l__HEADER |    00000008  l__HEADER |    00000008  l__HEADER
     00000025  l__GSINIT |    00000030  l__HEADER |    0000004E  l__HEADER
     00000082  l__HEADER |    00000112  l__DATA   |    00000200  s__CODE  
     0000033B  l__INITIA |    0000033B  l__INITIA |    0000055A  l__CODE  
     0000075A  s__HOME   |    00000C0C  l__HOME   |    00001366  s__BASE  
     00001366  s__CODE_0 |    00001366  s__INITIA |    00001366  s__LIT   
     000016A1  s__GSINIT |    000016C6  s__GSFINA |    00002000  _rROMB0  
     00002C10  l__CODE_1 |    00003000  _rROMB1   |    000030D5  l__CODE_2
     00004000  _rRAMB    |    00008000  __VRAM    |    00008000  __VRAM800
     00008800  __VRAM880 |    00009000  __VRAM900 |    00009800  __SCRN0  
     00009C00  __SCRN1   |    0000A000  __SRAM    |    0000C000  __RAM    
ASxxxx Linker V03.00 + NoICE + sdld,  page 2.
Hexadecimal  [32-Bits]

Area                       Addr        Size        Decimal Bytes (Attributes)
--------------------       ----        ----        ------- ----- ------------
.  .ABS.               00000000    00000000 =           0. bytes (ABS,CON)

        Value  Global            Value  Global            Value  Global    
        -----  ------            -----  ------            -----  ------    
     0000C000  _shadow_O |    0000C0A0  s__DATA   |    0000C1B2  s__BSS   
     0000C1B2  s__INITIA |    0000C4ED  s__HEAP   |    0000D000  __RAMBANK
     0000D000  _inc_ram  |    0000D000  _ram_buff |    0000E000  .STACK   
     0000FE00  __OAMRAM  |    0000FF00  _P1_REG   |    0000FF00  __IO     
     0000FF01  _SB_REG   |    0000FF02  _SC_REG   |    0000FF04  _DIV_REG 
     0000FF05  _TIMA_REG |    0000FF06  _TMA_REG  |    0000FF07  _TAC_REG 
     0000FF0F  _IF_REG   |    0000FF10  _NR10_REG |    0000FF11  _NR11_REG
     0000FF12  _NR12_REG |    0000FF13  _NR13_REG |    0000FF14  _NR14_REG
     0000FF16  _NR21_REG |    0000FF17  _NR22_REG |    0000FF18  _NR23_REG
     0000FF19  _NR24_REG |    0000FF1A  _NR30_REG |    0000FF1B  _NR31_REG
     0000FF1C  _NR32_REG |    0000FF1D  _NR33_REG |    0000FF1E  _NR34_REG
     0000FF20  _NR41_REG |    0000FF21  _NR42_REG |    0000FF22  _NR43_REG
     0000FF23  _NR44_REG |    0000FF24  _NR50_REG |    0000FF25  _NR51_REG
     0000FF26  _NR52_REG |    0000FF30  _AUD3WAVE |    0000FF30  _PCM_SAMP
     0000FF30  __AUD3WAV |    0000FF40  _LCDC_REG |    0000FF41  _STAT_REG
     0000FF42  _SCY_REG  |    0000FF43  _SCX_REG  |    0000FF44  _LY_REG  
     0000FF45  _LYC_REG  |    0000FF46  _DMA_REG  |    0000FF47  _BGP_REG 
     0000FF48  _OBP0_REG |    0000FF49  _OBP1_REG |    0000FF4A  _WY_REG  
     0000FF4B  _WX_REG   |    0000FF4D  _KEY1_REG |    0000FF4F  _VBK_REG 
     0000FF51  _HDMA1_RE |    0000FF52  _HDMA2_RE |    0000FF53  _HDMA3_RE
     0000FF54  _HDMA4_RE |    0000FF55  _HDMA5_RE |    0000FF56  _RP_REG  
     0000FF68  _BCPS_REG |    0000FF69  _BCPD_REG |    0000FF6A  _OCPS_REG
     0000FF6B  _OCPD_REG |    0000FF70  _SVBK_REG |    0000FF76  _PCM12_RE
     0000FF77  _PCM34_RE |    0000FF80  .refresh_ |    0000FF80  __HRAM   
     0000FFA0  _hiram_bu |    0000FFA0  _inc_hira |    0000FFFF  _IE_REG  
     00014000  s__CODE_1 |    00024000  s__CODE_2
ASxxxx Linker V03.00 + NoICE + sdld,  page 3.
Hexadecimal  [32-Bits]

Area                       Addr        Size        Decimal Bytes (Attributes)
--------------------       ----        ----        ------- ----- ------------
_CODE                  00000200    0000055A =        1370. bytes (REL,CON)

        Value  Global            Value  Global            Value  Global    
        -----  ------            -----  ------            -----  ------    
     00000200  _send_byt |    00000213  _receive_ |    00000224  _set_spri
     00000229  _set_bkg_ |    0000022C  .set_pale |    0000024B  _set_spri
     00000250  _set_bkg_ |    00000253  .set_pale |    0000026F  _arand   
     0000029B  _initaran |    00000370  ___printf |    00000707  _sprintf 
     00000728  _printf   |    00000741  _cgb_comp |    00000741  _set_defa
ASxxxx Linker V03.00 + NoICE + sdld,  page 4.
Hexadecimal  [32-Bits]

Area                       Addr        Size        Decimal Bytes (Attributes)
--------------------       ----        ----        ------- ----- ------------
_HEADER0               00000000    00000001 =           1. bytes (ABS,CON)

        Value  Global            Value  Global            Value  Global    
        -----  ------            -----  ------            -----  ------    
     00000020  .call_hl 
ASxxxx Linker V03.00 + NoICE + sdld,  page 5.
Hexadecimal  [32-Bits]

Area                       Addr        Size        Decimal Bytes (Attributes)
--------------------       ----        ----        ------- ----- ------------
_HEADER1               00000000    00000005 =           5. bytes (ABS,CON)

        Value  Global            Value  Global            Value  Global    
        -----  ------            -----  ------            -----  ------    
     00000028  .MemsetSm
ASxxxx Linker V03.00 + NoICE + sdld,  page 6.
Hexadecimal  [32-Bits]

Area                       Addr        Size        Decimal Bytes (Attributes)
--------------------       ----        ----        ------- ----- ------------
_HEADER2               00000000    00000007 =           7. bytes (ABS,CON)

        Value  Global            Value  Global            Value  Global    
        -----  ------            -----  ------            -----  ------    
     00000030  .MemcpySm
ASxxxx Linker V03.00 + NoICE + sdld,  page 7.
Hexadecimal  [32-Bits]

Area                       Addr        Size        Decimal Bytes (Attributes)
--------------------       ----        ----        ------- ----- ------------
_HEADER3               00000000    00000008 =           8. bytes (ABS,CON)

        Value  Global            Value  Global            Value  Global    
        -----  ------            -----  ------            -----  ------    
ASxxxx Linker V03.00 + NoICE + sdld,  page 8.
Hexadecimal  [32-Bits]

Area                       Addr        Size        Decimal Bytes (Attributes)
--------------------       ----        ----        ------- ----- ------------
_HEADER4               00000000    0000004E =          78. bytes (ABS,CON)

        Value  Global            Value  Global            Value  Global    
        -----  ------            -----  ------            -----  ------    
     00000080  .int      |    0000008F  _wait_int |    0000009C  __standar
     000000AC  _refresh_
ASxxxx Linker V03.00 + NoICE + sdld,  page 9.
Hexadecimal  [32-Bits]

Area                       Addr        Size        Decimal Bytes (Attributes)
--------------------       ----        ----        ------- ----- ------------
_HEADER5               00000000    00000002 =           2. bytes (ABS,CON)

        Value  Global            Value  Global            Value  Global    
        -----  ------            -----  ------            -----  ------    
ASxxxx Linker V03.00 + NoICE + sdld,  page 10.
Hexadecimal  [32-Bits]

Area                       Addr        Size        Decimal Bytes (Attributes)
--------------------       ----        ----        ------- ----- ------------
_HEADER6               00000000    00000030 =          48. bytes (ABS,CON)

        Value  Global            Value  Global            Value  Global    
        -----  ------            -----  ------            -----  ------    
ASxxxx Linker V03.00 + NoICE + sdld,  page 11.
Hexadecimal  [32-Bits]

Area                       Addr        Size        Decimal Bytes (Attributes)
--------------------       ----        ----        ------- ----- ------------
_HEADER7               00000000    00000006 =           6. bytes (ABS,CON)

        Value  Global            Value  Global            Value  Global    
        -----  ------            -----  ------            -----  ------    
ASxxxx Linker V03.00 + NoICE + sdld,  page 12.
Hexadecimal  [32-Bits]

Area                       Addr        Size        Decimal Bytes (Attributes)
--------------------       ----        ----        ------- ----- ------------
_HEADER8               00000000    00000003 =           3. bytes (ABS,CON)

        Value  Global            Value  Global            Value  Global    
        -----  ------            -----  ------            -----  ------    
ASxxxx Linker V03.00 + NoICE + sdld,  page 13.
Hexadecimal  [32-Bits]

Area                       Addr        Size        Decimal Bytes (Attributes)
--------------------       ----        ----        ------- ----- ------------
_HEADER9               00000000    00000001 =           1. bytes (ABS,CON)

        Value  Global            Value  Global            Value  Global    
        -----  ------            -----  ------            -----  ------    
ASxxxx Linker V03.00 + NoICE + sdld,  page 14.
Hexadecimal  [32-Bits]

Area                       Addr        Size        Decimal Bytes (Attributes)
--------------------       ----        ----        ------- ----- ------------
_HEADERa               00000000    00000001 =           1. bytes (ABS,CON)

        Value  Global            Value  Global            Value  Global    
        -----  ------            -----  ------            -----  ------    
ASxxxx Linker V03.00 + NoICE + sdld,  page 15.
Hexadecimal  [32-Bits]

Area                       Addr        Size        Decimal Bytes (Attributes)
--------------------       ----        ----        ------- ----- ------------
_HEADERb               00000000    00000001 =           1. bytes (ABS,CON)

        Value  Global            Value  Global            Value  Global    
        -----  ------            -----  ------            -----  ------    
ASxxxx Linker V03.00 + NoICE + sdld,  page 16.
Hexadecimal  [32-Bits]

Area                       Addr        Size        Decimal Bytes (Attributes)
--------------------       ----        ----        ------- ----- ------------
_HEADERc               00000000    00000002 =           2. bytes (ABS,CON)

        Value  Global            Value  Global            Value  Global    
        -----  ------            -----  ------            -----  ------    
ASxxxx Linker V03.00 + NoICE + sdld,  page 17.
Hexadecimal  [32-Bits]

Area                       Addr        Size        Decimal Bytes (Attributes)
--------------------       ----        ----        ------- ----- ------------
_HEADERd               00000000    00000001 =           1. bytes (ABS,CON)

        Value  Global            Value  Global            Value  Global    
        -----  ------            -----  ------            -----  ------    
ASxxxx Linker V03.00 + NoICE + sdld,  page 18.
Hexadecimal  [32-Bits]

Area                       Addr        Size        Decimal Bytes (Attributes)
--------------------       ----        ----        ------- ----- ------------
_HEADERe               00000000    00000001 =           1. bytes (ABS,CON)

        Value  Global            Value  Global            Value  Global    
        -----  ------            -----  ------            -----  ------    
ASxxxx Linker V03.00 + NoICE + sdld,  page 19.
Hexadecimal  [32-Bits]

Area                       Addr        Size        Decimal Bytes (Attributes)
--------------------       ----        ----        ------- ----- ------------
_HEADERf               00000000    00000002 =           2. bytes (ABS,CON)

        Value  Global            Value  Global            Value  Global    
        -----  ------            -----  ------            -----  ------    
ASxxxx Linker V03.00 + NoICE + sdld,  page 20.
Hexadecimal  [32-Bits]

Area                       Addr        Size        Decimal Bytes (Attributes)
--------------------       ----        ----        ------- ----- ------------
_HEADER10              00000000    00000082 =         130. bytes (ABS,CON)

        Value  Global            Value  Global            Value  Global    
        -----  ------            -----  ------            -----  ------    
     00000150  .reset    |    00000150  _reset    |    00000157  .code_sta
     000001B7  _exit     |    000001BB  _set_inte
ASxxxx Linker V03.00 + NoICE + sdld,  page 21.
Hexadecimal  [32-Bits]

Area                       Addr        Size        Decimal Bytes (Attributes)
--------------------       ----        ----        ------- ----- ------------
_HEADER11              00000000    00000001 =           1. bytes (ABS,CON)

        Value  Global            Value  Global            Value  Global    
        -----  ------            -----  ------            -----  ------    
ASxxxx Linker V03.00 + NoICE + sdld,  page 22.
Hexadecimal  [32-Bits]

Area                       Addr        Size        Decimal Bytes (Attributes)
--------------------       ----        ----        ------- ----- ------------
_HOME                  0000075A    00000C0C =        3084. bytes (REL,CON)

        Value  Global            Value  Global            Value  Global    
        -----  ------            -----  ------            -----  ------    
     0000075A  .memset_s |    00000763  .memcpy_s |    00000780  .remove_V
     00000783  .remove_i |    000007A0  .add_VBL  |    000007A3  .add_int 
     000007AE  .wait_vbl |    000007AE  _wait_vbl |    000007BE  .display_
     000007BE  _display_ |    000007D6  _remove_V |    000007E1  _add_VBL 
     000007EC  .padup    |    000007EC  _waitpadu |    000007FC  .jpad    
     000007FC  _joypad   |    00000824  _waitpad  |    00000827  .wait_pad
     0000082E  _add_SIO  |    00000839  .add_SIO  |    0000083F  _remove_S
     0000084A  .remove_S |    00000850  .serial_I |    0000087B  _EMU_prof
     000008C3  _set_tile |    000008C8  _set_bkg_ |    000008C8  _set_win_
     000008D0  _set_spri |    00000900  _font_loa |    00000907  font_load
     0000094F  font_copy |    00000985  font_set  |    00000992  .put_char
     000009AA  .out_char |    000009B0  .del_char |    00000A06  _putchar 
     00000A0F  _setchar  |    00000A18  _font_loa |    00000A26  _font_set
     00000A35  _font_ini |    00000A54  .cls      |    00000A54  _cls     
     00000A76  _gotoxy   |    00000A81  _posx     |    00000A92  _posy    
     00000ABA  .cr_curs  |    00000ACF  .adv_curs |    00000B2B  .tmode   
     00000B54  .tmode_ou |    00000B5D  ___sdcc_c |    00000B5E  _color   
     00000B5E  _set_1bpp |    00000B6D  _memset   |    00000BA0  ___memcpy
     00000BA0  _memcpy   |    00000BE3  _puts     |    00000C00  .drawing_
     00000C0B  .drawing_ |    00000C47  _add_LCD  |    00000C52  .add_LCD 
     00000C58  _remove_L |    00000C63  .remove_L |    00000C69  _font_ibm
     0000101B  _delay    |    00001020  .delay    |    0000104C  ___sdcc_b
     0000105D  _EMU_prin |    00001080  __divsuch |    0000108D  __modsuch
     00001097  __divusch |    000010A9  __modusch |    000010B9  __divscha
     000010C5  __modscha |    000010CF  __divsint |    000010E0  __modsint
     000010EF  __divucha |    000010FB  __moducha |    00001105  __divuint
     00001116  __moduint |    00001125  .div8     |    00001125  .mod8    
     0000112D  .div16    |    0000112D  .mod16    |    00001163  .divu8   
     00001163  .modu8    |    00001166  .divu16   |    00001166  .modu16  
     000011A7  _hiramcpy |    000011B1  .hiramcpy |    000011BC  _set_bkg_
     000011D0  _uitoa    |    000011DF  _itoa     |    000011EE  .itoa    
     00001202  .utoa     |    00001276  _rand     |    00001276  _randw   
     000012A1  _initrand |    000012A3  .initrand |    000012AC  _set_bkg_
     000012AC  _set_win_ |    000012B4  _set_spri |    0000130C  .set_xy_w
     00001315  .set_xy_b |    00001324  .set_xy_t
ASxxxx Linker V03.00 + NoICE + sdld,  page 23.
Hexadecimal  [32-Bits]

Area                       Addr        Size        Decimal Bytes (Attributes)
--------------------       ----        ----        ------- ----- ------------
_INITIALIZER           00001366    0000033B =         827. bytes (REL,CON)

        Value  Global            Value  Global            Value  Global    
        -----  ------            -----  ------            -----  ------    
ASxxxx Linker V03.00 + NoICE + sdld,  page 24.
Hexadecimal  [32-Bits]

Area                       Addr        Size        Decimal Bytes (Attributes)
--------------------       ----        ----        ------- ----- ------------
_GSINIT                000016A1    00000025 =          37. bytes (REL,CON)

        Value  Global            Value  Global            Value  Global    
        -----  ------            -----  ------            -----  ------    
     000016A1  gsinit   
ASxxxx Linker V03.00 + NoICE + sdld,  page 25.
Hexadecimal  [32-Bits]

Area                       Addr        Size        Decimal Bytes (Attributes)
--------------------       ----        ----        ------- ----- ------------
_GSFINAL               000016C6    00000001 =           1. bytes (REL,CON)

        Value  Global            Value  Global            Value  Global    
        -----  ------            -----  ------            -----  ------    
ASxxxx Linker V03.00 + NoICE + sdld,  page 26.
Hexadecimal  [32-Bits]

Area                       Addr        Size        Decimal Bytes (Attributes)
--------------------       ----        ----        ------- ----- ------------
_DATA                  0000C0A0    00000112 =         274. bytes (REL,CON)

        Value  Global            Value  Global            Value  Global    
        -----  ------            -----  ------            -----  ------    
     0000C0A0  __cpu     |    0000C0A1  __is_GBA  |    0000C0A2  .mode    
     0000C0A3  .sys_time |    0000C0A3  _sys_time |    0000C0A5  .int_0x40
     0000C0B9  _rng_seed |    0000C0BB  _primaryB |    0000C0BC  __io_out 
     0000C0BD  __io_in   |    0000C0BE  __io_stat |    0000C0BF  .int_0x58
     0000C108  font_curr |    0000C10B  font_firs |    0000C10C  font_tabl
     0000C11E  .int_0x48 |    0000C1B0  ___rand_s
ASxxxx Linker V03.00 + NoICE + sdld,  page 27.
Hexadecimal  [32-Bits]

Area                       Addr        Size        Decimal Bytes (Attributes)
--------------------       ----        ----        ------- ----- ------------
_INITIALIZED           0000C1B2    0000033B =         827. bytes (REL,CON)

        Value  Global            Value  Global            Value  Global    
        -----  ------            -----  ------            -----  ------    
     0000C1B4  _MENU_ARR |    0000C1B5  _MENU_ARR |    0000C1B6  _MENU_ARR
     0000C1BC  _MENU_IND |    0000C1BD  _CURRENT_ |    0000C1C0  _firstRun
     0000C1C2  _results  |    0000C1C4  _endData  |    0000C1C6  _memTestC
     0000C1C8  _inc_ram_ |    0000C1CA  _inc_hira |    0000C1D0  _arrow_ce
     0000C1D3  _bar_p    |    0000C213  _bar_a    |    0000C37B  _bar_b   
     0000C4E7  .curx     |    0000C4E8  .cury     |    0000C4E9  .fg_colou
     0000C4E9  __current |    0000C4EA  .bg_colou |    0000C4EB  .draw_mod
     0000C4EC  __map_til
ASxxxx Linker V03.00 + NoICE + sdld,  page 28.
Hexadecimal  [32-Bits]

Area                       Addr        Size        Decimal Bytes (Attributes)
--------------------       ----        ----        ------- ----- ------------
_HRAM12                00000000    00000003 =           3. bytes (ABS,CON)

        Value  Global            Value  Global            Value  Global    
        -----  ------            -----  ------            -----  ------    
     0000FF90  __current |    0000FF92  __shadow_
ASxxxx Linker V03.00 + NoICE + sdld,  page 29.
Hexadecimal  [32-Bits]

Area                       Addr        Size        Decimal Bytes (Attributes)
--------------------       ----        ----        ------- ----- ------------
_CODE_1                00014000    00002C10 =       11280. bytes (REL,CON)

        Value  Global            Value  Global            Value  Global    
        -----  ------            -----  ------            -----  ------    
     00014000  ___func_f |    00014000  _font_pal |    00014008  _font_til
     000142E8  _font_met |    000143A8  _font_met |    000143AA  _audio_te
     0001448B  _start_te |    000145A3  _double_r |    000145DC  _main    
     000147CC  _inc      |    000147D4  _inc_end  |    000147D5  _save_tes
     00014932  _init_sav |    00014AF0  _check_sa |    00014B53  _print_co
     00014BAB  _ram_spri |    00014C17  _ram_spri |    00014C71  _ram_spri
     00014C8E  ___func_m |    00014C8E  _mem_test |    0001506E  ___func_t
     0001506E  _text_loa |    000150A8  ___func_t |    000150A8  _text_pri
     00015181  ___func_t |    00015181  _text_pri |    000151C6  _show_gbl
     00015220  _test_dat |    00015250  _receive_ |    000152E8  _wait_for
     0001537E  _send_dat |    00015401  ___func_s |    00015401  _superuse
     000154C3  ___func_s |    000154C3  _superuse |    00015595  ___func_g
     00015595  _gblink_t |    000156BD  ___func_g |    000156BD  ___func_g
     000156BD  ___func_g |    000156BD  ___func_g |    000156BD  _gblink_b
     000156CD  _gblink_b |    00015BED  _gblink_b |    00015D55  _gblink_b
     00015EBD  ___func_m |    00015EBD  ___func_m |    00015EBD  ___func_m
     00015EBD  _menu_arr |    00015EE8  _menu_arr |    00015EF0  _menu_arr
     00015F00  ___func_m |    00015F00  ___func_m |    00015F00  ___func_m
     00015F00  ___func_m |    00015F00  ___func_m |    00015F00  _menu_bac
     00015F63  _menu_bac |    00015F6B  _menu_bac |    0001671B  _menu_bac
     00016883  _menu_bac |    00016A10  _RAM_SPRI
ASxxxx Linker V03.00 + NoICE + sdld,  page 30.
Hexadecimal  [32-Bits]

Area                       Addr        Size        Decimal Bytes (Attributes)
--------------------       ----        ----        ------- ----- ------------
_CODE_2                00024000    000030D5 =       12501. bytes (REL,CON)

        Value  Global            Value  Global            Value  Global    
        -----  ------            -----  ------            -----  ------    
     00024000  _blank_di |    000240FE  _ask_user |    00024222  ___func_n
     00024222  _next_arr |    000242B7  _button_t |    000242BF  ___func_n
     000242BF  _next_but |    0002434B  ___func_b |    0002434B  _buttons_
     000243BF  ___func_b |    000243BF  _button_t |    000245D0  _display_
     000246EC  _display_ |    000247A1  _display_ |    000248B3  _display_
     000249CC  _display_ |    00024AFC  _do_scrol |    00024B85  _display_
     00024C65  ___func_a |    00024C65  _alert_pa |    00024C6D  _alert_pa
     00024EDD  _alert_pa |    00025045  _alert_pa |    000251AD  ___func_b
     000251AD  ___func_b |    000251AD  _bar_cCGB |    000251CD  _bar_c   
     000253CD  _BUTTON_A |    000253CD  ___func_B |    000257CD  _BUTTONS 
     000257CD  ___func_B |    00025BCD  ___func_c |    00025BCD  ___func_c
     00025BCD  ___func_c |    00025BCD  ___func_c |    00025BCD  _checkerb
     00025BD5  _checkerb |    00025BF5  _checkerb |    00025D5D  _checkerb
     00025EC5  _Colorbar |    00025EC5  ___func_C |    0002602D  _Colorbar
     0002602D  ___func_C |    00026195  ___func_p |    00026195  _passfail
     0002619D  _passfail |    00026AFD  _passfail |    00026C65  _passfail
     00026DCD  ___func_s |    00026DCD  _scroll_p |    00026DD5  _scroll_p
     00026E05  _scroll_p |    00026F6D  _scroll_p
ASxxxx Linker V03.00 + NoICE + sdld,  page 31.
Hexadecimal  [32-Bits]

Area                       Addr        Size        Decimal Bytes (Attributes)
--------------------       ----        ----        ------- ----- ------------
_HEADER_SIO0           00000000    00000008 =           8. bytes (ABS,CON)

        Value  Global            Value  Global            Value  Global    
        -----  ------            -----  ------            -----  ------    
ASxxxx Linker V03.00 + NoICE + sdld,  page 32.
Hexadecimal  [32-Bits]

Area                       Addr        Size        Decimal Bytes (Attributes)
--------------------       ----        ----        ------- ----- ------------
_EMU_HEADER0           00000000    00000003 =           3. bytes (ABS,CON)

        Value  Global            Value  Global            Value  Global    
        -----  ------            -----  ------            -----  ------    
ASxxxx Linker V03.00 + NoICE + sdld,  page 33.
Hexadecimal  [32-Bits]

Area                       Addr        Size        Decimal Bytes (Attributes)
--------------------       ----        ----        ------- ----- ------------
_FONT_HEADER0          00000000    00000003 =           3. bytes (ABS,CON)

        Value  Global            Value  Global            Value  Global    
        -----  ------            -----  ------            -----  ------    
ASxxxx Linker V03.00 + NoICE + sdld,  page 34.
Hexadecimal  [32-Bits]

Area                       Addr        Size        Decimal Bytes (Attributes)
--------------------       ----        ----        ------- ----- ------------
_HEADER_LCD0           00000000    00000003 =           3. bytes (ABS,CON)

        Value  Global            Value  Global            Value  Global    
        -----  ------            -----  ------            -----  ------    
ASxxxx Linker V03.00 + NoICE + sdld,  page 35.

Files Linked                              [ module(s) ]

X:\gbc_hacks\gbdk\lib/small/asxxxx/gb/crt0.o
                                          [ Runtime ]
obj/gbc/font.tileset.rel                  [ font_tileset ]
obj/gbc/main.rel                          [ main ]
obj/gbc/savememory.rel                    [ savememory ]
obj/gbc/text.rel                          [ text ]
obj/gbc/utilities.rel                     [ utilities ]
obj/gbc/button_test.rel                   [ button_test ]
obj/gbc/display_tests.rel                 [ display_tests ]
obj/gbc/gblink.rel                        [ gblink ]
obj/gbc/alert_pattern.rel                 [ alert_pattern ]
obj/gbc/bar_c.rel                         [ bar_c ]
obj/gbc/button_arrow.rel                  [ button_arrow ]
obj/gbc/button_tiles.rel                  [ button_tiles ]
obj/gbc/checkerboard_32x32.rel            [ checkerboard_32x32 ]
obj/gbc/colorbars_leftright.rel           [ colorbars_leftright ]
obj/gbc/colorbars_rightleft.rel           [ colorbars_rightleft ]
obj/gbc/gblink_bg.rel                     [ gblink_bg ]
obj/gbc/menu_arrow.rel                    [ menu_arrow ]
obj/gbc/menu_background.rel               [ menu_background ]
obj/gbc/passfail_bg.rel                   [ passfail_bg ]
obj/gbc/ram_sprite.rel                    [ ram_sprite ]
obj/gbc/scroll_pattern.rel                [ scroll_pattern ]


Libraries Linked                          [ object file ]

X:\gbc_hacks\gbdk\lib/small/asxxxx/gb/gb.lib
                                          [ pad.o ]
X:\gbc_hacks\gbdk\lib/small/asxxxx/gb/gb.lib
                                          [ sfr.o ]
X:\gbc_hacks\gbdk\lib/small/asxxxx/gb/gb.lib
                                          [ serial.o ]
X:\gbc_hacks\gbdk\lib/small/asxxxx/gb/gb.lib
                                          [ cgb_palettes.o ]
X:\gbc_hacks\gbdk\lib/small/asxxxx/gb/gb.lib
                                          [ emu_debug.o ]
X:\gbc_hacks\gbdk\lib/small/asxxxx/gbz80/gbz80.lib
                                          [ arand.o ]
X:\gbc_hacks\gbdk\lib/small/asxxxx/gb/gb.lib
                                          [ set_data.o ]
X:\gbc_hacks\gbdk\lib/small/asxxxx/gb/gb.lib
                                          [ font.o ]
X:\gbc_hacks\gbdk\lib/small/asxxxx/gbz80/gbz80.lib
                                          [ sprintf.o ]
X:\gbc_hacks\gbdk\lib/small/asxxxx/gbz80/gbz80.lib
                                          [ __sdcc_call_hl.o ]
X:\gbc_hacks\gbdk\lib/small/asxxxx/gb/gb.lib
                                          [ color.o ]
X:\gbc_hacks\gbdk\lib/small/asxxxx/gbz80/gbz80.lib
                                          [ _memset.o ]
X:\gbc_hacks\gbdk\lib/small/asxxxx/gbz80/gbz80.lib
                                          [ _memcpy.o ]
X:\gbc_hacks\gbdk\lib/small/asxxxx/gbz80/gbz80.lib
                                          [ puts.o ]
X:\gbc_hacks\gbdk\lib/small/asxxxx/gb/gb.lib
                                          [ drawing_isr.o ]
X:\gbc_hacks\gbdk\lib/small/asxxxx/gb/gb.lib
                                          [ lcd.o ]
X:\gbc_hacks\gbdk\lib/small/asxxxx/gb/gb.lib
                                          [ f_ibm_sh.o ]
X:\gbc_hacks\gbdk\lib/small/asxxxx/gb/gb.lib
                                          [ delay.o ]
X:\gbc_hacks\gbdk\lib/small/asxxxx/gb/gb.lib
                                          [ ___sdcc_bcall_ehl.o ]
X:\gbc_hacks\gbdk\lib/small/asxxxx/gbz80/gbz80.lib
                                          [ printf.o ]
X:\gbc_hacks\gbdk\lib/small/asxxxx/gb/gb.lib
                                          [ emu_debug_printf.o ]
X:\gbc_hacks\gbdk\lib/small/asxxxx/gbz80/gbz80.lib
                                          [ div.o ]
X:\gbc_hacks\gbdk\lib/small/asxxxx/gb/gb.lib
                                          [ hiramcpy.o ]
X:\gbc_hacks\gbdk\lib/small/asxxxx/gb/gb.lib
                                          [ cgb_compat.o ]
X:\gbc_hacks\gbdk\lib/small/asxxxx/gb/gb.lib
                                          [ set_bk_t.o ]
X:\gbc_hacks\gbdk\lib/small/asxxxx/gbz80/gbz80.lib
                                          [ itoa.o ]
X:\gbc_hacks\gbdk\lib/small/asxxxx/gbz80/gbz80.lib
                                          [ rand.o ]
X:\gbc_hacks\gbdk\lib/small/asxxxx/gb/gb.lib
                                          [ set_1bit_data.o ]
X:\gbc_hacks\gbdk\lib/small/asxxxx/gb/gb.lib
                                          [ set_xy_t.o ]

ASxxxx Linker V03.00 + NoICE + sdld,  page 36.

User Base Address Definitions

_DATA=0xC0A0
_CODE=0x0200
ASxxxx Linker V03.00 + NoICE + sdld,  page 37.

User Global Definitions

_inc_ram=0xD000
_inc_hiram=0xFFA0
_shadow_OAM=0xC000
.STACK=0xE000
.refresh_OAM=0xFF80

